; Function Attrs: nounwind uwtable
define hidden <2 x float> @b2GetPrismaticJointForce(ptr noundef %0, ptr noundef readonly captures(none) %1) local_unnamed_addr #3 {
  %3 = getelementptr inbounds nuw i8, ptr %1, i64 4
  %4 = load i32, ptr %3, align 4, !tbaa !62
  %5 = tail call { <2 x float>, <2 x float> } @b2GetBodyTransform(ptr noundef %0, i32 noundef %4) #8
  %6 = extractvalue { <2 x float>, <2 x float> } %5, 1
  %7 = getelementptr inbounds nuw i8, ptr %1, i64 48
  %8 = load <2 x float>, ptr %7, align 4
  %.sroa.05.0.vec.extract.i = extractelement <2 x float> %6, i64 0
  %.sroa.0.0.vec.extract.i = extractelement <2 x float> %8, i64 0
  %9 = fmul <2 x float> %6, %8
  %10 = extractelement <2 x float> %9, i64 0
  %.sroa.05.4.vec.extract.i = extractelement <2 x float> %6, i64 1
  %.sroa.0.4.vec.extract.i = extractelement <2 x float> %8, i64 1
  %11 = fmul float %.sroa.05.4.vec.extract.i, %.sroa.0.4.vec.extract.i
  %12 = fsub float %10, %11
  %13 = fmul float %.sroa.05.4.vec.extract.i, %.sroa.0.0.vec.extract.i
  %14 = fmul float %.sroa.05.0.vec.extract.i, %.sroa.0.4.vec.extract.i
  %15 = fadd float %13, %14
  %16 = getelementptr inbounds nuw i8, ptr %0, i64 1768
  %17 = load float, ptr %16, align 8, !tbaa !8
  %18 = getelementptr inbounds nuw i8, ptr %1, i64 56
  %19 = load float, ptr %18, align 4, !tbaa !69
  %20 = fmul float %17, %19
  %21 = getelementptr inbounds nuw i8, ptr %1, i64 68
  %22 = load float, ptr %21, align 4, !tbaa !72
  %23 = getelementptr inbounds nuw i8, ptr %1, i64 72
  %24 = load float, ptr %23, align 4, !tbaa !73
  %25 = fadd float %22, %24
  %26 = getelementptr inbounds nuw i8, ptr %1, i64 76
  %27 = load float, ptr %26, align 4, !tbaa !74
  %28 = fsub float %25, %27
  %29 = fmul float %17, %28
  %30 = fmul float %20, %12
  %31 = fmul float %12, %29
  %32 = fmul float %15, %29
  %33 = fmul float %15, %20
  %34 = fsub float %31, %33
  %.sroa.02.0.vec.insert.i27 = insertelement <2 x float> poison, float %34, i64 0
  %35 = fadd float %30, %32
  %.sroa.02.4.vec.insert.i29 = insertelement <2 x float> %.sroa.02.0.vec.insert.i27, float %35, i64 1
  ret <2 x float> %.sroa.02.4.vec.insert.i29
}